target datalayout = "e-m:e-p270:32:32-p271:32:32-p272:64:64-i64:64-i128:128-f80:128-n8:16:32:64-S128"
target triple = "x86_64-pc-linux-gnu"

%"class.clang::SourceRange" = type { %"class.clang::SourceLocation", %"class.clang::SourceLocation" }
%"class.clang::SourceLocation" = type { i32 }
%"class.clang::AttributeCommonInfo" = type { ptr, ptr, %"class.clang::SourceRange", %"class.clang::SourceLocation", i32 }
%"class.clang::Attr.base" = type <{ %"class.clang::AttributeCommonInfo", i16, i8 }>
%"class.clang::OMPDeclareSimdDeclAttr" = type { %"class.clang::Attr.base", i32, ptr, i32, ptr, i32, ptr, i32, ptr, i32, ptr, i32, ptr, i32, ptr }

; Function Attrs: mustprogress nounwind uwtable
define linkonce_odr hidden noundef ptr @_ZNK5clang22OMPDeclareSimdDeclAttr9steps_endEv(ptr noundef nonnull align 8 dereferenceable(144) %0) #0 comdat align 2 {
  %2 = alloca ptr, align 8
  store ptr %0, ptr %2, align 8
  %3 = load ptr, ptr %2, align 8
  %4 = getelementptr inbounds nuw %"class.clang::OMPDeclareSimdDeclAttr", ptr %3, i32 0, i32 14
  %5 = load ptr, ptr %4, align 8
  %6 = getelementptr inbounds nuw %"class.clang::OMPDeclareSimdDeclAttr", ptr %3, i32 0, i32 13
  %7 = load i32, ptr %6, align 8
  %8 = zext i32 %7 to i64
  %9 = getelementptr inbounds ptr, ptr %5, i64 %8
  ret ptr %9
}

; Function Attrs: mustprogress nounwind uwtable
define linkonce_odr hidden noundef ptr @_ZNK5clang22OMPDeclareSimdDeclAttr11steps_beginEv(ptr noundef nonnull align 8 dereferenceable(144) %0) #0 comdat align 2 {
  %2 = alloca ptr, align 8
  store ptr %0, ptr %2, align 8
  %3 = load ptr, ptr %2, align 8
  %4 = getelementptr inbounds nuw %"class.clang::OMPDeclareSimdDeclAttr", ptr %3, i32 0, i32 14
  %5 = load ptr, ptr %4, align 8
  ret ptr %5
}

; Function Attrs: mustprogress nounwind uwtable
define linkonce_odr hidden noundef ptr @_ZNK5clang22OMPDeclareSimdDeclAttr11linears_endEv(ptr noundef nonnull align 8 dereferenceable(144) %0) #0 comdat align 2 {
  %2 = alloca ptr, align 8
  store ptr %0, ptr %2, align 8
  %3 = load ptr, ptr %2, align 8
  %4 = getelementptr inbounds nuw %"class.clang::OMPDeclareSimdDeclAttr", ptr %3, i32 0, i32 10
  %5 = load ptr, ptr %4, align 8
  %6 = getelementptr inbounds nuw %"class.clang::OMPDeclareSimdDeclAttr", ptr %3, i32 0, i32 9
  %7 = load i32, ptr %6, align 8
  %8 = zext i32 %7 to i64
  %9 = getelementptr inbounds ptr, ptr %5, i64 %8
  ret ptr %9
}

; Function Attrs: mustprogress nounwind uwtable
define linkonce_odr hidden noundef ptr @_ZNK5clang22OMPDeclareSimdDeclAttr13linears_beginEv(ptr noundef nonnull align 8 dereferenceable(144) %0) #0 comdat align 2 {
  %2 = alloca ptr, align 8
  store ptr %0, ptr %2, align 8
  %3 = load ptr, ptr %2, align 8
  %4 = getelementptr inbounds nuw %"class.clang::OMPDeclareSimdDeclAttr", ptr %3, i32 0, i32 10
  %5 = load ptr, ptr %4, align 8
  ret ptr %5
}

; Function Attrs: mustprogress nounwind uwtable
define linkonce_odr hidden noundef ptr @_ZNK5clang22OMPDeclareSimdDeclAttr14alignments_endEv(ptr noundef nonnull align 8 dereferenceable(144) %0) #0 comdat align 2 {
  %2 = alloca ptr, align 8
  store ptr %0, ptr %2, align 8
  %3 = load ptr, ptr %2, align 8
  %4 = getelementptr inbounds nuw %"class.clang::OMPDeclareSimdDeclAttr", ptr %3, i32 0, i32 8
  %5 = load ptr, ptr %4, align 8
  %6 = getelementptr inbounds nuw %"class.clang::OMPDeclareSimdDeclAttr", ptr %3, i32 0, i32 7
  %7 = load i32, ptr %6, align 8
  %8 = zext i32 %7 to i64
  %9 = getelementptr inbounds ptr, ptr %5, i64 %8
  ret ptr %9
}

; Function Attrs: mustprogress nounwind uwtable
define linkonce_odr hidden noundef ptr @_ZNK5clang22OMPDeclareSimdDeclAttr16alignments_beginEv(ptr noundef nonnull align 8 dereferenceable(144) %0) #0 comdat align 2 {
  %2 = alloca ptr, align 8
  store ptr %0, ptr %2, align 8
  %3 = load ptr, ptr %2, align 8
  %4 = getelementptr inbounds nuw %"class.clang::OMPDeclareSimdDeclAttr", ptr %3, i32 0, i32 8
  %5 = load ptr, ptr %4, align 8
  ret ptr %5
}

; Function Attrs: mustprogress nounwind uwtable
define linkonce_odr hidden noundef ptr @_ZNK5clang22OMPDeclareSimdDeclAttr12aligneds_endEv(ptr noundef nonnull align 8 dereferenceable(144) %0) #0 comdat align 2 {
  %2 = alloca ptr, align 8
  store ptr %0, ptr %2, align 8
  %3 = load ptr, ptr %2, align 8
  %4 = getelementptr inbounds nuw %"class.clang::OMPDeclareSimdDeclAttr", ptr %3, i32 0, i32 6
  %5 = load ptr, ptr %4, align 8
  %6 = getelementptr inbounds nuw %"class.clang::OMPDeclareSimdDeclAttr", ptr %3, i32 0, i32 5
  %7 = load i32, ptr %6, align 8
  %8 = zext i32 %7 to i64
  %9 = getelementptr inbounds ptr, ptr %5, i64 %8
  ret ptr %9
}

; Function Attrs: mustprogress nounwind uwtable
define linkonce_odr hidden noundef ptr @_ZNK5clang22OMPDeclareSimdDeclAttr14aligneds_beginEv(ptr noundef nonnull align 8 dereferenceable(144) %0) #0 comdat align 2 {
  %2 = alloca ptr, align 8
  store ptr %0, ptr %2, align 8
  %3 = load ptr, ptr %2, align 8
  %4 = getelementptr inbounds nuw %"class.clang::OMPDeclareSimdDeclAttr", ptr %3, i32 0, i32 6
  %5 = load ptr, ptr %4, align 8
  ret ptr %5
}

; Function Attrs: mustprogress nounwind uwtable
define linkonce_odr hidden noundef ptr @_ZNK5clang22OMPDeclareSimdDeclAttr12uniforms_endEv(ptr noundef nonnull align 8 dereferenceable(144) %0) #0 comdat align 2 {
  %2 = alloca ptr, align 8
  store ptr %0, ptr %2, align 8
  %3 = load ptr, ptr %2, align 8
  %4 = getelementptr inbounds nuw %"class.clang::OMPDeclareSimdDeclAttr", ptr %3, i32 0, i32 4
  %5 = load ptr, ptr %4, align 8
  %6 = getelementptr inbounds nuw %"class.clang::OMPDeclareSimdDeclAttr", ptr %3, i32 0, i32 3
  %7 = load i32, ptr %6, align 8
  %8 = zext i32 %7 to i64
  %9 = getelementptr inbounds ptr, ptr %5, i64 %8
  ret ptr %9
}

; Function Attrs: mustprogress nounwind uwtable
define linkonce_odr hidden noundef ptr @_ZNK5clang22OMPDeclareSimdDeclAttr14uniforms_beginEv(ptr noundef nonnull align 8 dereferenceable(144) %0) #0 comdat align 2 {
  %2 = alloca ptr, align 8
  store ptr %0, ptr %2, align 8
  %3 = load ptr, ptr %2, align 8
  %4 = getelementptr inbounds nuw %"class.clang::OMPDeclareSimdDeclAttr", ptr %3, i32 0, i32 4
  %5 = load ptr, ptr %4, align 8
  ret ptr %5
}

; Function Attrs: mustprogress nounwind uwtable
define linkonce_odr hidden noundef ptr @_ZNK5clang22OMPDeclareSimdDeclAttr10getSimdlenEv(ptr noundef nonnull align 8 dereferenceable(144) %0) #0 comdat align 2 {
  %2 = alloca ptr, align 8
  store ptr %0, ptr %2, align 8
  %3 = load ptr, ptr %2, align 8
  %4 = getelementptr inbounds nuw %"class.clang::OMPDeclareSimdDeclAttr", ptr %3, i32 0, i32 2
  %5 = load ptr, ptr %4, align 8
  ret ptr %5
}

; Function Attrs: mustprogress nounwind uwtable
define internal noundef zeroext i1 @_ZN5clang19RecursiveASTVisitorIN12_GLOBAL__N_122EmptyStatementsRemoverEE27VisitOMPDeclareSimdDeclAttrEPNS_22OMPDeclareSimdDeclAttrE(ptr noundef nonnull align 1 dereferenceable(1) %0, ptr noundef %1) #0 align 2 {
  %3 = alloca ptr, align 8
  %4 = alloca ptr, align 8
  store ptr %0, ptr %3, align 8
  store ptr %1, ptr %4, align 8
  ret i1 true
}

; Function Attrs: mustprogress nounwind uwtable
define internal noundef zeroext i1 @_ZN5clang19RecursiveASTVisitorIN12_GLOBAL__N_122EmptyStatementsRemoverEE9VisitAttrEPNS_4AttrE(ptr noundef nonnull align 1 dereferenceable(1) %0, ptr noundef %1) #0 align 2 {
  %3 = alloca ptr, align 8
  %4 = alloca ptr, align 8
  store ptr %0, ptr %3, align 8
  store ptr %1, ptr %4, align 8
  ret i1 true
}

; Function Attrs: mustprogress nounwind uwtable
define internal noundef nonnull align 8 dereferenceable(8) ptr @_ZN5clang19RecursiveASTVisitorIN12_GLOBAL__N_122EmptyStatementsRemoverEE10getDerivedEv(ptr noundef nonnull align 1 dereferenceable(1) %0) #0 align 2 {
  %2 = alloca ptr, align 8
  store ptr %0, ptr %2, align 8
  %3 = load ptr, ptr %2, align 8
  ret ptr %3
}

; Function Attrs: mustprogress nounwind uwtable
define internal noundef zeroext i1 @_ZN5clang19RecursiveASTVisitorIN12_GLOBAL__N_122EmptyStatementsRemoverEE30TraverseOMPDeclareSimdDeclAttrEPNS_22OMPDeclareSimdDeclAttrE(ptr noundef nonnull align 1 dereferenceable(1) %0, ptr noundef %1) #0 align 2 {
  %3 = alloca i1, align 1
  %4 = alloca ptr, align 8
  %5 = alloca ptr, align 8
  %6 = alloca ptr, align 8
  %7 = alloca ptr, align 8
  %8 = alloca ptr, align 8
  %9 = alloca ptr, align 8
  %10 = alloca ptr, align 8
  %11 = alloca ptr, align 8
  %12 = alloca ptr, align 8
  %13 = alloca ptr, align 8
  %14 = alloca ptr, align 8
  %15 = alloca ptr, align 8
  store ptr %0, ptr %4, align 8
  store ptr %1, ptr %5, align 8
  %16 = load ptr, ptr %4, align 8
  %17 = call noundef nonnull align 8 dereferenceable(8) ptr @_ZN5clang19RecursiveASTVisitorIN12_GLOBAL__N_122EmptyStatementsRemoverEE10getDerivedEv(ptr noundef nonnull align 1 dereferenceable(1) %16)
  %18 = load ptr, ptr %5, align 8
  %19 = call noundef zeroext i1 @_ZN5clang19RecursiveASTVisitorIN12_GLOBAL__N_122EmptyStatementsRemoverEE9VisitAttrEPNS_4AttrE(ptr noundef nonnull align 1 dereferenceable(1) %17, ptr noundef %18)
  br i1 %19, label %21, label %20

20:                                               ; preds = %2
  store i1 false, ptr %3, align 1
  br label %128

21:                                               ; preds = %2
  %22 = call noundef nonnull align 8 dereferenceable(8) ptr @_ZN5clang19RecursiveASTVisitorIN12_GLOBAL__N_122EmptyStatementsRemoverEE10getDerivedEv(ptr noundef nonnull align 1 dereferenceable(1) %16)
  %23 = load ptr, ptr %5, align 8
  %24 = call noundef zeroext i1 @_ZN5clang19RecursiveASTVisitorIN12_GLOBAL__N_122EmptyStatementsRemoverEE27VisitOMPDeclareSimdDeclAttrEPNS_22OMPDeclareSimdDeclAttrE(ptr noundef nonnull align 1 dereferenceable(1) %22, ptr noundef %23)
  br i1 %24, label %26, label %25

25:                                               ; preds = %21
  store i1 false, ptr %3, align 1
  br label %128

26:                                               ; preds = %21
  %27 = call noundef nonnull align 8 dereferenceable(8) ptr @_ZN5clang19RecursiveASTVisitorIN12_GLOBAL__N_122EmptyStatementsRemoverEE10getDerivedEv(ptr noundef nonnull align 1 dereferenceable(1) %16)
  %28 = load ptr, ptr %5, align 8
  %29 = call noundef ptr @_ZNK5clang22OMPDeclareSimdDeclAttr10getSimdlenEv(ptr noundef nonnull align 8 dereferenceable(144) %28)
  %30 = call noundef zeroext i1 @_ZN5clang19RecursiveASTVisitorIN12_GLOBAL__N_122EmptyStatementsRemoverEE12TraverseStmtEPNS_4StmtEPN4llvm15SmallVectorImplINS6_14PointerIntPairIS5_Lj1EbNS6_21PointerLikeTypeTraitsIS5_EENS6_18PointerIntPairInfoIS5_Lj1ESA_EEEEEE(ptr noundef nonnull align 1 dereferenceable(1) %27, ptr noundef %29, ptr noundef null)
  br i1 %30, label %32, label %31

31:                                               ; preds = %26
  store i1 false, ptr %3, align 1
  br label %128

32:                                               ; preds = %26
  %33 = load ptr, ptr %5, align 8
  %34 = call noundef ptr @_ZNK5clang22OMPDeclareSimdDeclAttr14uniforms_beginEv(ptr noundef nonnull align 8 dereferenceable(144) %33)
  store ptr %34, ptr %6, align 8
  %35 = load ptr, ptr %5, align 8
  %36 = call noundef ptr @_ZNK5clang22OMPDeclareSimdDeclAttr12uniforms_endEv(ptr noundef nonnull align 8 dereferenceable(144) %35)
  store ptr %36, ptr %7, align 8
  br label %37

37:                                               ; preds = %48, %32
  %38 = load ptr, ptr %6, align 8
  %39 = load ptr, ptr %7, align 8
  %40 = icmp ne ptr %38, %39
  br i1 %40, label %41, label %51

41:                                               ; preds = %37
  %42 = call noundef nonnull align 8 dereferenceable(8) ptr @_ZN5clang19RecursiveASTVisitorIN12_GLOBAL__N_122EmptyStatementsRemoverEE10getDerivedEv(ptr noundef nonnull align 1 dereferenceable(1) %16)
  %43 = load ptr, ptr %6, align 8
  %44 = load ptr, ptr %43, align 8
  %45 = call noundef zeroext i1 @_ZN5clang19RecursiveASTVisitorIN12_GLOBAL__N_122EmptyStatementsRemoverEE12TraverseStmtEPNS_4StmtEPN4llvm15SmallVectorImplINS6_14PointerIntPairIS5_Lj1EbNS6_21PointerLikeTypeTraitsIS5_EENS6_18PointerIntPairInfoIS5_Lj1ESA_EEEEEE(ptr noundef nonnull align 1 dereferenceable(1) %42, ptr noundef %44, ptr noundef null)
  br i1 %45, label %47, label %46

46:                                               ; preds = %41
  store i1 false, ptr %3, align 1
  br label %128

47:                                               ; preds = %41
  br label %48

48:                                               ; preds = %47
  %49 = load ptr, ptr %6, align 8
  %50 = getelementptr inbounds ptr, ptr %49, i32 1
  store ptr %50, ptr %6, align 8
  br label %37, !llvm.loop !46

51:                                               ; preds = %37
  %52 = load ptr, ptr %5, align 8
  %53 = call noundef ptr @_ZNK5clang22OMPDeclareSimdDeclAttr14aligneds_beginEv(ptr noundef nonnull align 8 dereferenceable(144) %52)
  store ptr %53, ptr %8, align 8
  %54 = load ptr, ptr %5, align 8
  %55 = call noundef ptr @_ZNK5clang22OMPDeclareSimdDeclAttr12aligneds_endEv(ptr noundef nonnull align 8 dereferenceable(144) %54)
  store ptr %55, ptr %9, align 8
  br label %56

56:                                               ; preds = %67, %51
  %57 = load ptr, ptr %8, align 8
  %58 = load ptr, ptr %9, align 8
  %59 = icmp ne ptr %57, %58
  br i1 %59, label %60, label %70

60:                                               ; preds = %56
  %61 = call noundef nonnull align 8 dereferenceable(8) ptr @_ZN5clang19RecursiveASTVisitorIN12_GLOBAL__N_122EmptyStatementsRemoverEE10getDerivedEv(ptr noundef nonnull align 1 dereferenceable(1) %16)
  %62 = load ptr, ptr %8, align 8
  %63 = load ptr, ptr %62, align 8
  %64 = call noundef zeroext i1 @_ZN5clang19RecursiveASTVisitorIN12_GLOBAL__N_122EmptyStatementsRemoverEE12TraverseStmtEPNS_4StmtEPN4llvm15SmallVectorImplINS6_14PointerIntPairIS5_Lj1EbNS6_21PointerLikeTypeTraitsIS5_EENS6_18PointerIntPairInfoIS5_Lj1ESA_EEEEEE(ptr noundef nonnull align 1 dereferenceable(1) %61, ptr noundef %63, ptr noundef null)
  br i1 %64, label %66, label %65

65:                                               ; preds = %60
  store i1 false, ptr %3, align 1
  br label %128

66:                                               ; preds = %60
  br label %67

67:                                               ; preds = %66
  %68 = load ptr, ptr %8, align 8
  %69 = getelementptr inbounds ptr, ptr %68, i32 1
  store ptr %69, ptr %8, align 8
  br label %56, !llvm.loop !47

70:                                               ; preds = %56
  %71 = load ptr, ptr %5, align 8
  %72 = call noundef ptr @_ZNK5clang22OMPDeclareSimdDeclAttr16alignments_beginEv(ptr noundef nonnull align 8 dereferenceable(144) %71)
  store ptr %72, ptr %10, align 8
  %73 = load ptr, ptr %5, align 8
  %74 = call noundef ptr @_ZNK5clang22OMPDeclareSimdDeclAttr14alignments_endEv(ptr noundef nonnull align 8 dereferenceable(144) %73)
  store ptr %74, ptr %11, align 8
  br label %75

75:                                               ; preds = %86, %70
  %76 = load ptr, ptr %10, align 8
  %77 = load ptr, ptr %11, align 8
  %78 = icmp ne ptr %76, %77
  br i1 %78, label %79, label %89

79:                                               ; preds = %75
  %80 = call noundef nonnull align 8 dereferenceable(8) ptr @_ZN5clang19RecursiveASTVisitorIN12_GLOBAL__N_122EmptyStatementsRemoverEE10getDerivedEv(ptr noundef nonnull align 1 dereferenceable(1) %16)
  %81 = load ptr, ptr %10, align 8
  %82 = load ptr, ptr %81, align 8
  %83 = call noundef zeroext i1 @_ZN5clang19RecursiveASTVisitorIN12_GLOBAL__N_122EmptyStatementsRemoverEE12TraverseStmtEPNS_4StmtEPN4llvm15SmallVectorImplINS6_14PointerIntPairIS5_Lj1EbNS6_21PointerLikeTypeTraitsIS5_EENS6_18PointerIntPairInfoIS5_Lj1ESA_EEEEEE(ptr noundef nonnull align 1 dereferenceable(1) %80, ptr noundef %82, ptr noundef null)
  br i1 %83, label %85, label %84

84:                                               ; preds = %79
  store i1 false, ptr %3, align 1
  br label %128

85:                                               ; preds = %79
  br label %86

86:                                               ; preds = %85
  %87 = load ptr, ptr %10, align 8
  %88 = getelementptr inbounds ptr, ptr %87, i32 1
  store ptr %88, ptr %10, align 8
  br label %75, !llvm.loop !48

89:                                               ; preds = %75
  %90 = load ptr, ptr %5, align 8
  %91 = call noundef ptr @_ZNK5clang22OMPDeclareSimdDeclAttr13linears_beginEv(ptr noundef nonnull align 8 dereferenceable(144) %90)
  store ptr %91, ptr %12, align 8
  %92 = load ptr, ptr %5, align 8
  %93 = call noundef ptr @_ZNK5clang22OMPDeclareSimdDeclAttr11linears_endEv(ptr noundef nonnull align 8 dereferenceable(144) %92)
  store ptr %93, ptr %13, align 8
  br label %94

94:                                               ; preds = %105, %89
  %95 = load ptr, ptr %12, align 8
  %96 = load ptr, ptr %13, align 8
  %97 = icmp ne ptr %95, %96
  br i1 %97, label %98, label %108

98:                                               ; preds = %94
  %99 = call noundef nonnull align 8 dereferenceable(8) ptr @_ZN5clang19RecursiveASTVisitorIN12_GLOBAL__N_122EmptyStatementsRemoverEE10getDerivedEv(ptr noundef nonnull align 1 dereferenceable(1) %16)
  %100 = load ptr, ptr %12, align 8
  %101 = load ptr, ptr %100, align 8
  %102 = call noundef zeroext i1 @_ZN5clang19RecursiveASTVisitorIN12_GLOBAL__N_122EmptyStatementsRemoverEE12TraverseStmtEPNS_4StmtEPN4llvm15SmallVectorImplINS6_14PointerIntPairIS5_Lj1EbNS6_21PointerLikeTypeTraitsIS5_EENS6_18PointerIntPairInfoIS5_Lj1ESA_EEEEEE(ptr noundef nonnull align 1 dereferenceable(1) %99, ptr noundef %101, ptr noundef null)
  br i1 %102, label %104, label %103

103:                                              ; preds = %98
  store i1 false, ptr %3, align 1
  br label %128

104:                                              ; preds = %98
  br label %105

105:                                              ; preds = %104
  %106 = load ptr, ptr %12, align 8
  %107 = getelementptr inbounds ptr, ptr %106, i32 1
  store ptr %107, ptr %12, align 8
  br label %94, !llvm.loop !49

108:                                              ; preds = %94
  %109 = load ptr, ptr %5, align 8
  %110 = call noundef ptr @_ZNK5clang22OMPDeclareSimdDeclAttr11steps_beginEv(ptr noundef nonnull align 8 dereferenceable(144) %109)
  store ptr %110, ptr %14, align 8
  %111 = load ptr, ptr %5, align 8
  %112 = call noundef ptr @_ZNK5clang22OMPDeclareSimdDeclAttr9steps_endEv(ptr noundef nonnull align 8 dereferenceable(144) %111)
  store ptr %112, ptr %15, align 8
  br label %113

113:                                              ; preds = %124, %108
  %114 = load ptr, ptr %14, align 8
  %115 = load ptr, ptr %15, align 8
  %116 = icmp ne ptr %114, %115
  br i1 %116, label %117, label %127

117:                                              ; preds = %113
  %118 = call noundef nonnull align 8 dereferenceable(8) ptr @_ZN5clang19RecursiveASTVisitorIN12_GLOBAL__N_122EmptyStatementsRemoverEE10getDerivedEv(ptr noundef nonnull align 1 dereferenceable(1) %16)
  %119 = load ptr, ptr %14, align 8
  %120 = load ptr, ptr %119, align 8
  %121 = call noundef zeroext i1 @_ZN5clang19RecursiveASTVisitorIN12_GLOBAL__N_122EmptyStatementsRemoverEE12TraverseStmtEPNS_4StmtEPN4llvm15SmallVectorImplINS6_14PointerIntPairIS5_Lj1EbNS6_21PointerLikeTypeTraitsIS5_EENS6_18PointerIntPairInfoIS5_Lj1ESA_EEEEEE(ptr noundef nonnull align 1 dereferenceable(1) %118, ptr noundef %120, ptr noundef null)
  br i1 %121, label %123, label %122

122:                                              ; preds = %117
  store i1 false, ptr %3, align 1
  br label %128

123:                                              ; preds = %117
  br label %124

124:                                              ; preds = %123
  %125 = load ptr, ptr %14, align 8
  %126 = getelementptr inbounds ptr, ptr %125, i32 1
  store ptr %126, ptr %14, align 8
  br label %113, !llvm.loop !50

127:                                              ; preds = %113
  store i1 true, ptr %3, align 1
  br label %128

128:                                              ; preds = %127, %122, %103, %84, %65, %46, %31, %25, %20
  %129 = load i1, ptr %3, align 1
  ret i1 %129
}