; Function Attrs: mustprogress nounwind uwtable
define internal fastcc noundef zeroext i1 @_ZN5clang19RecursiveASTVisitorIN12_GLOBAL__N_122EmptyStatementsRemoverEE30TraverseOMPDeclareSimdDeclAttrEPNS_22OMPDeclareSimdDeclAttrE(ptr noundef nonnull align 1 dereferenceable(1) %0, ptr noundef readonly captures(none) %1) unnamed_addr #0 align 2 {
  %3 = getelementptr inbounds nuw i8, ptr %1, i64 40
  %4 = load ptr, ptr %3, align 8
  %5 = tail call fastcc noundef zeroext i1 @_ZN5clang19RecursiveASTVisitorIN12_GLOBAL__N_122EmptyStatementsRemoverEE12TraverseStmtEPNS_4StmtEPN4llvm15SmallVectorImplINS6_14PointerIntPairIS5_Lj1EbNS6_21PointerLikeTypeTraitsIS5_EENS6_18PointerIntPairInfoIS5_Lj1ESA_EEEEEE(ptr noundef nonnull align 1 dereferenceable(1) %0, ptr noundef %4, ptr noundef null)
  br i1 %5, label %6, label %.loopexit

6:                                                ; preds = %2
  %7 = getelementptr inbounds nuw i8, ptr %1, i64 56
  %8 = load ptr, ptr %7, align 8
  %9 = getelementptr inbounds nuw i8, ptr %1, i64 48
  %10 = load i32, ptr %9, align 8
  %11 = zext i32 %10 to i64
  %12 = getelementptr inbounds nuw ptr, ptr %8, i64 %11
  %.not48 = icmp eq i32 %10, 0
  br i1 %.not48, label %._crit_edge, label %.lr.ph

13:                                               ; preds = %.lr.ph
  %14 = getelementptr inbounds nuw i8, ptr %.03649, i64 8
  %.not = icmp eq ptr %14, %12
  br i1 %.not, label %._crit_edge, label %.lr.ph, !llvm.loop !95

.lr.ph:                                           ; preds = %6, %13
  %.03649 = phi ptr [ %14, %13 ], [ %8, %6 ]
  %15 = load ptr, ptr %.03649, align 8
  %16 = tail call fastcc noundef zeroext i1 @_ZN5clang19RecursiveASTVisitorIN12_GLOBAL__N_122EmptyStatementsRemoverEE12TraverseStmtEPNS_4StmtEPN4llvm15SmallVectorImplINS6_14PointerIntPairIS5_Lj1EbNS6_21PointerLikeTypeTraitsIS5_EENS6_18PointerIntPairInfoIS5_Lj1ESA_EEEEEE(ptr noundef nonnull align 1 dereferenceable(1) %0, ptr noundef %15, ptr noundef null)
  br i1 %16, label %13, label %.loopexit

._crit_edge:                                      ; preds = %13, %6
  %17 = getelementptr inbounds nuw i8, ptr %1, i64 72
  %18 = load ptr, ptr %17, align 8
  %19 = getelementptr inbounds nuw i8, ptr %1, i64 64
  %20 = load i32, ptr %19, align 8
  %21 = zext i32 %20 to i64
  %22 = getelementptr inbounds nuw ptr, ptr %18, i64 %21
  %.not4050 = icmp eq i32 %20, 0
  br i1 %.not4050, label %._crit_edge54, label %.lr.ph53

23:                                               ; preds = %.lr.ph53
  %24 = getelementptr inbounds nuw i8, ptr %.03851, i64 8
  %.not40 = icmp eq ptr %24, %22
  br i1 %.not40, label %._crit_edge54, label %.lr.ph53, !llvm.loop !96

.lr.ph53:                                         ; preds = %._crit_edge, %23
  %.03851 = phi ptr [ %24, %23 ], [ %18, %._crit_edge ]
  %25 = load ptr, ptr %.03851, align 8
  %26 = tail call fastcc noundef zeroext i1 @_ZN5clang19RecursiveASTVisitorIN12_GLOBAL__N_122EmptyStatementsRemoverEE12TraverseStmtEPNS_4StmtEPN4llvm15SmallVectorImplINS6_14PointerIntPairIS5_Lj1EbNS6_21PointerLikeTypeTraitsIS5_EENS6_18PointerIntPairInfoIS5_Lj1ESA_EEEEEE(ptr noundef nonnull align 1 dereferenceable(1) %0, ptr noundef %25, ptr noundef null)
  br i1 %26, label %23, label %.loopexit

._crit_edge54:                                    ; preds = %23, %._crit_edge
  %27 = getelementptr inbounds nuw i8, ptr %1, i64 88
  %28 = load ptr, ptr %27, align 8
  %29 = getelementptr inbounds nuw i8, ptr %1, i64 80
  %30 = load i32, ptr %29, align 8
  %31 = zext i32 %30 to i64
  %32 = getelementptr inbounds nuw ptr, ptr %28, i64 %31
  %.not4155 = icmp eq i32 %30, 0
  br i1 %.not4155, label %._crit_edge59, label %.lr.ph58

33:                                               ; preds = %.lr.ph58
  %34 = getelementptr inbounds nuw i8, ptr %.03956, i64 8
  %.not41 = icmp eq ptr %34, %32
  br i1 %.not41, label %._crit_edge59, label %.lr.ph58, !llvm.loop !97

.lr.ph58:                                         ; preds = %._crit_edge54, %33
  %.03956 = phi ptr [ %34, %33 ], [ %28, %._crit_edge54 ]
  %35 = load ptr, ptr %.03956, align 8
  %36 = tail call fastcc noundef zeroext i1 @_ZN5clang19RecursiveASTVisitorIN12_GLOBAL__N_122EmptyStatementsRemoverEE12TraverseStmtEPNS_4StmtEPN4llvm15SmallVectorImplINS6_14PointerIntPairIS5_Lj1EbNS6_21PointerLikeTypeTraitsIS5_EENS6_18PointerIntPairInfoIS5_Lj1ESA_EEEEEE(ptr noundef nonnull align 1 dereferenceable(1) %0, ptr noundef %35, ptr noundef null)
  br i1 %36, label %33, label %.loopexit

._crit_edge59:                                    ; preds = %33, %._crit_edge54
  %37 = getelementptr inbounds nuw i8, ptr %1, i64 104
  %38 = load ptr, ptr %37, align 8
  %39 = getelementptr inbounds nuw i8, ptr %1, i64 96
  %40 = load i32, ptr %39, align 8
  %41 = zext i32 %40 to i64
  %42 = getelementptr inbounds nuw ptr, ptr %38, i64 %41
  %.not4260 = icmp eq i32 %40, 0
  br i1 %.not4260, label %._crit_edge64, label %.lr.ph63

43:                                               ; preds = %.lr.ph63
  %44 = getelementptr inbounds nuw i8, ptr %.03761, i64 8
  %.not42 = icmp eq ptr %44, %42
  br i1 %.not42, label %._crit_edge64, label %.lr.ph63, !llvm.loop !98

.lr.ph63:                                         ; preds = %._crit_edge59, %43
  %.03761 = phi ptr [ %44, %43 ], [ %38, %._crit_edge59 ]
  %45 = load ptr, ptr %.03761, align 8
  %46 = tail call fastcc noundef zeroext i1 @_ZN5clang19RecursiveASTVisitorIN12_GLOBAL__N_122EmptyStatementsRemoverEE12TraverseStmtEPNS_4StmtEPN4llvm15SmallVectorImplINS6_14PointerIntPairIS5_Lj1EbNS6_21PointerLikeTypeTraitsIS5_EENS6_18PointerIntPairInfoIS5_Lj1ESA_EEEEEE(ptr noundef nonnull align 1 dereferenceable(1) %0, ptr noundef %45, ptr noundef null)
  br i1 %46, label %43, label %.loopexit

._crit_edge64:                                    ; preds = %43, %._crit_edge59
  %47 = getelementptr inbounds nuw i8, ptr %1, i64 136
  %48 = load ptr, ptr %47, align 8
  %49 = getelementptr inbounds nuw i8, ptr %1, i64 128
  %50 = load i32, ptr %49, align 8
  %51 = zext i32 %50 to i64
  %52 = getelementptr inbounds nuw ptr, ptr %48, i64 %51
  %.not4365 = icmp eq i32 %50, 0
  br i1 %.not4365, label %.loopexit, label %.lr.ph68

.lr.ph68:                                         ; preds = %._crit_edge64, %.lr.ph68
  %.03566 = phi ptr [ %55, %.lr.ph68 ], [ %48, %._crit_edge64 ]
  %53 = load ptr, ptr %.03566, align 8
  %54 = tail call fastcc noundef zeroext i1 @_ZN5clang19RecursiveASTVisitorIN12_GLOBAL__N_122EmptyStatementsRemoverEE12TraverseStmtEPNS_4StmtEPN4llvm15SmallVectorImplINS6_14PointerIntPairIS5_Lj1EbNS6_21PointerLikeTypeTraitsIS5_EENS6_18PointerIntPairInfoIS5_Lj1ESA_EEEEEE(ptr noundef nonnull align 1 dereferenceable(1) %0, ptr noundef %53, ptr noundef null)
  %55 = getelementptr inbounds nuw i8, ptr %.03566, i64 8
  %.not43 = icmp ne ptr %55, %52
  %or.cond.not = select i1 %54, i1 %.not43, i1 false
  br i1 %or.cond.not, label %.lr.ph68, label %.loopexit, !llvm.loop !99

.loopexit:                                        ; preds = %.lr.ph, %.lr.ph53, %.lr.ph58, %.lr.ph63, %.lr.ph68, %._crit_edge64, %2
  %.0 = phi i1 [ false, %2 ], [ true, %._crit_edge64 ], [ %54, %.lr.ph68 ], [ false, %.lr.ph63 ], [ false, %.lr.ph58 ], [ false, %.lr.ph53 ], [ false, %.lr.ph ]
  ret i1 %.0
}